target datalayout = "e-m:e-p270:32:32-p271:32:32-p272:64:64-i64:64-i128:128-f80:128-n8:16:32:64-S128"
target triple = "x86_64-pc-linux-gnu"

%struct.tcpcl_dissect_ctx_t = type { ptr, ptr, i8, ptr, ptr, ptr }
%struct.tcpcl_peer_t = type { %struct._address, i32, i8, ptr, i8, i8, ptr, i16, i64, i64, ptr, i8, ptr, ptr }
%struct._address = type { i32, i32, ptr, ptr }

; Function Attrs: nounwind null_pointer_is_valid sspstrong uwtable
define internal void @set_chdr_missing(ptr noundef %0, i8 noundef zeroext %1) #5 {
  %3 = alloca ptr, align 8
  %4 = alloca i8, align 1
  store ptr %0, ptr %3, align 8
  store i8 %1, ptr %4, align 1
  %5 = load ptr, ptr %3, align 8
  %6 = getelementptr inbounds nuw %struct.tcpcl_peer_t, ptr %5, i32 0, i32 2
  store i8 1, ptr %6, align 4
  %7 = load i8, ptr %4, align 1
  %8 = load ptr, ptr %3, align 8
  %9 = getelementptr inbounds nuw %struct.tcpcl_peer_t, ptr %8, i32 0, i32 4
  store i8 %7, ptr %9, align 8
  %10 = load ptr, ptr %3, align 8
  %11 = getelementptr inbounds nuw %struct.tcpcl_peer_t, ptr %10, i32 0, i32 8
  store i64 -1, ptr %11, align 8
  %12 = load ptr, ptr %3, align 8
  %13 = getelementptr inbounds nuw %struct.tcpcl_peer_t, ptr %12, i32 0, i32 9
  store i64 -1, ptr %13, align 8
  ret void
}

; Function Attrs: null_pointer_is_valid sspstrong uwtable
define internal i32 @chdr_missing_v4(ptr noundef %0, ptr noundef %1, i32 noundef %2, ptr noundef %3) #0 {
  %5 = alloca ptr, align 8
  %6 = alloca ptr, align 8
  %7 = alloca i32, align 4
  %8 = alloca ptr, align 8
  %9 = alloca i32, align 4
  store ptr %0, ptr %5, align 8
  store ptr %1, ptr %6, align 8
  store i32 %2, ptr %7, align 4
  store ptr %3, ptr %8, align 8
  call void @llvm.lifetime.start.p0(i64 4, ptr %9) #11
  %10 = load ptr, ptr %5, align 8
  %11 = load ptr, ptr %6, align 8
  %12 = load i32, ptr %7, align 4
  %13 = load ptr, ptr %8, align 8
  %14 = call i32 @get_v4_msg_len(ptr noundef %10, ptr noundef %11, i32 noundef %12, ptr noundef %13)
  store i32 %14, ptr %9, align 4
  %15 = load i32, ptr %9, align 4
  %16 = icmp ugt i32 %15, 0
  br i1 %16, label %17, label %21

17:                                               ; preds = %4
  %18 = load ptr, ptr %8, align 8
  %19 = getelementptr inbounds nuw %struct.tcpcl_dissect_ctx_t, ptr %18, i32 0, i32 3
  %20 = load ptr, ptr %19, align 8
  call void @set_chdr_missing(ptr noundef %20, i8 noundef zeroext 4)
  br label %21

21:                                               ; preds = %17, %4
  %22 = load i32, ptr %9, align 4
  call void @llvm.lifetime.end.p0(i64 4, ptr %9) #11
  ret i32 %22
}