; Function Attrs: null_pointer_is_valid sspstrong uwtable
define internal i32 @chdr_missing_v4(ptr readnone captures(none) %0, ptr noundef %1, i32 noundef %2, ptr noundef readonly captures(none) %3) #0 {
  %5 = tail call fastcc i32 @get_v4_msg_len(ptr noundef %1, i32 noundef %2)
  %.not = icmp eq i32 %5, 0
  br i1 %.not, label %12, label %6

6:                                                ; preds = %4
  %7 = getelementptr inbounds nuw i8, ptr %3, i64 24
  %8 = load ptr, ptr %7, align 8
  %9 = getelementptr inbounds nuw i8, ptr %8, i64 28
  store i8 1, ptr %9, align 4
  %10 = getelementptr inbounds nuw i8, ptr %8, i64 40
  store i8 4, ptr %10, align 8
  %11 = getelementptr inbounds nuw i8, ptr %8, i64 64
  tail call void @llvm.memset.p0.i64(ptr noundef nonnull align 8 dereferenceable(16) %11, i8 -1, i64 16, i1 false)
  br label %12

12:                                               ; preds = %6, %4
  ret i32 %5
}